target datalayout = "e-m:e-p270:32:32-p271:32:32-p272:64:64-i64:64-i128:128-f80:128-n8:16:32:64-S128"
target triple = "x86_64-pc-linux-gnu"

@.str.133 = private unnamed_addr constant [7 x i8] c"months\00", align 1
@.str.134 = private unnamed_addr constant [6 x i8] c"hours\00", align 1
@.str.135 = private unnamed_addr constant [5 x i8] c"days\00", align 1
@.str.136 = private unnamed_addr constant [66 x i8] c"Invalid purge unit '%s', valid options are hours, days, or months\00", align 1
@.str.137 = private unnamed_addr constant [26 x i8] c"Invalid purge string '%s'\00", align 1

; Function Attrs: nounwind uwtable
define dso_local i32 @slurmdb_parse_purge(ptr noundef %0) #0 {
  %2 = alloca ptr, align 8
  %3 = alloca i32, align 4
  %4 = alloca i32, align 4
  %5 = alloca i32, align 4
  store ptr %0, ptr %2, align 8
  call void @llvm.lifetime.start.p0(i64 4, ptr %3) #10
  store i32 0, ptr %3, align 4
  call void @llvm.lifetime.start.p0(i64 4, ptr %4) #10
  store i32 -2, ptr %4, align 4
  br label %6

6:                                                ; preds = %45, %1
  %7 = load ptr, ptr %2, align 8
  %8 = load i32, ptr %3, align 4
  %9 = sext i32 %8 to i64
  %10 = getelementptr inbounds i8, ptr %7, i64 %9
  %11 = load i8, ptr %10, align 1
  %12 = icmp ne i8 %11, 0
  br i1 %12, label %13, label %48

13:                                               ; preds = %6
  %14 = load ptr, ptr %2, align 8
  %15 = load i32, ptr %3, align 4
  %16 = sext i32 %15 to i64
  %17 = getelementptr inbounds i8, ptr %14, i64 %16
  %18 = load i8, ptr %17, align 1
  %19 = sext i8 %18 to i32
  %20 = icmp sge i32 %19, 48
  br i1 %20, label %21, label %44

21:                                               ; preds = %13
  %22 = load ptr, ptr %2, align 8
  %23 = load i32, ptr %3, align 4
  %24 = sext i32 %23 to i64
  %25 = getelementptr inbounds i8, ptr %22, i64 %24
  %26 = load i8, ptr %25, align 1
  %27 = sext i8 %26 to i32
  %28 = icmp sle i32 %27, 57
  br i1 %28, label %29, label %44

29:                                               ; preds = %21
  %30 = load i32, ptr %4, align 4
  %31 = icmp eq i32 %30, -2
  br i1 %31, label %32, label %33

32:                                               ; preds = %29
  store i32 0, ptr %4, align 4
  br label %33

33:                                               ; preds = %32, %29
  %34 = load i32, ptr %4, align 4
  %35 = mul i32 %34, 10
  %36 = load ptr, ptr %2, align 8
  %37 = load i32, ptr %3, align 4
  %38 = sext i32 %37 to i64
  %39 = getelementptr inbounds i8, ptr %36, i64 %38
  %40 = load i8, ptr %39, align 1
  %41 = sext i8 %40 to i32
  %42 = sub nsw i32 %41, 48
  %43 = add i32 %35, %42
  store i32 %43, ptr %4, align 4
  br label %45

44:                                               ; preds = %21, %13
  br label %48

45:                                               ; preds = %33
  %46 = load i32, ptr %3, align 4
  %47 = add nsw i32 %46, 1
  store i32 %47, ptr %3, align 4
  br label %6, !llvm.loop !35

48:                                               ; preds = %44, %6
  %49 = load i32, ptr %4, align 4
  %50 = icmp ne i32 %49, -2
  br i1 %50, label %51, label %123

51:                                               ; preds = %48
  call void @llvm.lifetime.start.p0(i64 4, ptr %5) #10
  %52 = load ptr, ptr %2, align 8
  %53 = load i32, ptr %3, align 4
  %54 = sext i32 %53 to i64
  %55 = getelementptr inbounds i8, ptr %52, i64 %54
  %56 = call i64 @strlen(ptr noundef %55) #11
  %57 = trunc i64 %56 to i32
  store i32 %57, ptr %5, align 4
  %58 = load i32, ptr %5, align 4
  %59 = icmp ne i32 %58, 0
  br i1 %59, label %60, label %75

60:                                               ; preds = %51
  %61 = load ptr, ptr %2, align 8
  %62 = load i32, ptr %3, align 4
  %63 = sext i32 %62 to i64
  %64 = getelementptr inbounds i8, ptr %61, i64 %63
  %65 = load i32, ptr %5, align 4
  %66 = icmp sgt i32 %65, 1
  br i1 %66, label %67, label %69

67:                                               ; preds = %60
  %68 = load i32, ptr %5, align 4
  br label %70

69:                                               ; preds = %60
  br label %70

70:                                               ; preds = %69, %67
  %71 = phi i32 [ %68, %67 ], [ 1, %69 ]
  %72 = sext i32 %71 to i64
  %73 = call i32 @xstrncasecmp(ptr noundef @.str.133, ptr noundef %64, i64 noundef %72)
  %74 = icmp ne i32 %73, 0
  br i1 %74, label %78, label %75

75:                                               ; preds = %70, %51
  %76 = load i32, ptr %4, align 4
  %77 = or i32 %76, 262144
  store i32 %77, ptr %4, align 4
  br label %122

78:                                               ; preds = %70
  %79 = load ptr, ptr %2, align 8
  %80 = load i32, ptr %3, align 4
  %81 = sext i32 %80 to i64
  %82 = getelementptr inbounds i8, ptr %79, i64 %81
  %83 = load i32, ptr %5, align 4
  %84 = icmp sgt i32 %83, 1
  br i1 %84, label %85, label %87

85:                                               ; preds = %78
  %86 = load i32, ptr %5, align 4
  br label %88

87:                                               ; preds = %78
  br label %88

88:                                               ; preds = %87, %85
  %89 = phi i32 [ %86, %85 ], [ 1, %87 ]
  %90 = sext i32 %89 to i64
  %91 = call i32 @xstrncasecmp(ptr noundef @.str.134, ptr noundef %82, i64 noundef %90)
  %92 = icmp ne i32 %91, 0
  br i1 %92, label %96, label %93

93:                                               ; preds = %88
  %94 = load i32, ptr %4, align 4
  %95 = or i32 %94, 65536
  store i32 %95, ptr %4, align 4
  br label %121

96:                                               ; preds = %88
  %97 = load ptr, ptr %2, align 8
  %98 = load i32, ptr %3, align 4
  %99 = sext i32 %98 to i64
  %100 = getelementptr inbounds i8, ptr %97, i64 %99
  %101 = load i32, ptr %5, align 4
  %102 = icmp sgt i32 %101, 1
  br i1 %102, label %103, label %105

103:                                              ; preds = %96
  %104 = load i32, ptr %5, align 4
  br label %106

105:                                              ; preds = %96
  br label %106

106:                                              ; preds = %105, %103
  %107 = phi i32 [ %104, %103 ], [ 1, %105 ]
  %108 = sext i32 %107 to i64
  %109 = call i32 @xstrncasecmp(ptr noundef @.str.135, ptr noundef %100, i64 noundef %108)
  %110 = icmp ne i32 %109, 0
  br i1 %110, label %114, label %111

111:                                              ; preds = %106
  %112 = load i32, ptr %4, align 4
  %113 = or i32 %112, 131072
  store i32 %113, ptr %4, align 4
  br label %120

114:                                              ; preds = %106
  %115 = load ptr, ptr %2, align 8
  %116 = load i32, ptr %3, align 4
  %117 = sext i32 %116 to i64
  %118 = getelementptr inbounds i8, ptr %115, i64 %117
  %119 = call i32 (ptr, ...) @error(ptr noundef @.str.136, ptr noundef %118)
  store i32 -2, ptr %4, align 4
  br label %120

120:                                              ; preds = %114, %111
  br label %121

121:                                              ; preds = %120, %93
  br label %122

122:                                              ; preds = %121, %75
  call void @llvm.lifetime.end.p0(i64 4, ptr %5) #10
  br label %126

123:                                              ; preds = %48
  %124 = load ptr, ptr %2, align 8
  %125 = call i32 (ptr, ...) @error(ptr noundef @.str.137, ptr noundef %124)
  br label %126

126:                                              ; preds = %123, %122
  %127 = load i32, ptr %4, align 4
  call void @llvm.lifetime.end.p0(i64 4, ptr %4) #10
  call void @llvm.lifetime.end.p0(i64 4, ptr %3) #10
  ret i32 %127
}