; Function Attrs: nounwind uwtable
define dso_local range(i32 65536, 0) i32 @slurmdb_parse_purge(ptr noundef %0) local_unnamed_addr #0 {
  %2 = load i8, ptr %0, align 1
  %3 = add i8 %2, -48
  %or.cond4244 = icmp ult i8 %3, 10
  br i1 %or.cond4244, label %.lr.ph, label %._crit_edge.thread

.lr.ph:                                           ; preds = %1, %.lr.ph
  %indvars.iv = phi i64 [ %indvars.iv.next, %.lr.ph ], [ 0, %1 ]
  %4 = phi i8 [ %11, %.lr.ph ], [ %2, %1 ]
  %.03345 = phi i32 [ %9, %.lr.ph ], [ -2, %1 ]
  %5 = icmp eq i32 %.03345, -2
  %6 = mul i32 %.03345, 10
  %7 = select i1 %5, i32 0, i32 %6
  %narrow = add nsw i8 %4, -48
  %8 = zext nneg i8 %narrow to i32
  %9 = add i32 %7, %8
  %indvars.iv.next = add nuw nsw i64 %indvars.iv, 1
  %10 = getelementptr inbounds nuw i8, ptr %0, i64 %indvars.iv.next
  %11 = load i8, ptr %10, align 1
  %12 = add i8 %11, -48
  %or.cond42 = icmp ult i8 %12, 10
  br i1 %or.cond42, label %.lr.ph, label %._crit_edge, !llvm.loop !34

._crit_edge:                                      ; preds = %.lr.ph
  %13 = getelementptr inbounds nuw i8, ptr %0, i64 %indvars.iv.next
  %.not37 = icmp eq i32 %9, -2
  br i1 %.not37, label %._crit_edge.thread, label %14

14:                                               ; preds = %._crit_edge
  %15 = tail call i64 @strlen(ptr noundef nonnull dereferenceable(1) %13) #20
  %16 = trunc i64 %15 to i32
  %.not38 = icmp eq i32 %16, 0
  br i1 %.not38, label %21, label %17

17:                                               ; preds = %14
  %18 = tail call i32 @llvm.smax.i32(i32 %16, i32 1)
  %19 = zext nneg i32 %18 to i64
  %20 = tail call i32 @xstrncasecmp(ptr noundef nonnull @.str.133, ptr noundef nonnull %13, i64 noundef %19) #19
  %.not39 = icmp eq i32 %20, 0
  br i1 %.not39, label %21, label %23

21:                                               ; preds = %17, %14
  %22 = or i32 %9, 262144
  br label %34

23:                                               ; preds = %17
  %24 = tail call i32 @xstrncasecmp(ptr noundef nonnull @.str.134, ptr noundef nonnull %13, i64 noundef %19) #19
  %.not40 = icmp eq i32 %24, 0
  br i1 %.not40, label %25, label %27

25:                                               ; preds = %23
  %26 = or i32 %9, 65536
  br label %34

27:                                               ; preds = %23
  %28 = tail call i32 @xstrncasecmp(ptr noundef nonnull @.str.135, ptr noundef nonnull %13, i64 noundef %19) #19
  %.not41 = icmp eq i32 %28, 0
  br i1 %.not41, label %29, label %31

29:                                               ; preds = %27
  %30 = or i32 %9, 131072
  br label %34

31:                                               ; preds = %27
  %32 = tail call i32 (ptr, ...) @error(ptr noundef nonnull @.str.136, ptr noundef nonnull %13) #19
  br label %34

._crit_edge.thread:                               ; preds = %1, %._crit_edge
  %33 = tail call i32 (ptr, ...) @error(ptr noundef nonnull @.str.137, ptr noundef nonnull %0) #19
  br label %34

34:                                               ; preds = %21, %29, %31, %25, %._crit_edge.thread
  %.2 = phi i32 [ -2, %._crit_edge.thread ], [ -2, %31 ], [ %30, %29 ], [ %26, %25 ], [ %22, %21 ]
  ret i32 %.2
}